; Function Attrs: mustprogress uwtable
define hidden void @_ZN19bv_bound_chk_tacticC2ER11ast_managerRK10params_ref(ptr noundef nonnull align 8 dereferenceable(44) initializes((0, 12)) %0, ptr noundef nonnull align 8 dereferenceable(976) %1, ptr noundef nonnull align 8 dereferenceable(8) %2) unnamed_addr #3 align 2 personality ptr @__gxx_personality_v0 {
  %4 = getelementptr inbounds nuw i8, ptr %0, i64 8
  store i32 0, ptr %4, align 8, !tbaa !3
  store ptr getelementptr inbounds nuw inrange(-16, 192) (i8, ptr @_ZTV19bv_bound_chk_tactic, i64 16), ptr %0, align 8, !tbaa !9
  %5 = getelementptr inbounds nuw i8, ptr %0, i64 24
  tail call void @_ZN10params_refC1ERKS_(ptr noundef nonnull align 8 dereferenceable(8) %5, ptr noundef nonnull align 8 dereferenceable(8) %2)
  %6 = getelementptr inbounds nuw i8, ptr %0, i64 32
  store i32 0, ptr %6, align 8, !tbaa !11
  %7 = getelementptr inbounds nuw i8, ptr %0, i64 36
  store i32 0, ptr %7, align 4, !tbaa !13
  %8 = getelementptr inbounds nuw i8, ptr %0, i64 40
  store i32 0, ptr %8, align 8, !tbaa !14
  %9 = invoke noalias noundef ptr @_ZN6memory8allocateEm(i64 noundef 648)
          to label %10 unwind label %20

10:                                               ; preds = %3
  store ptr getelementptr inbounds nuw inrange(-16, 16) (i8, ptr @_ZTV21bv_bound_chk_rewriter, i64 16), ptr %9, align 8, !tbaa !9
  %11 = getelementptr inbounds nuw i8, ptr %9, i64 536
  invoke void @_ZN12rewriter_tplI25bv_bound_chk_rewriter_cfgEC2ER11ast_managerbRS0_(ptr noundef nonnull align 8 dereferenceable(648) %9, ptr noundef nonnull align 8 dereferenceable(976) %1, i1 noundef zeroext false, ptr noundef nonnull align 8 dereferenceable(112) %11)
          to label %.noexc unwind label %20

.noexc:                                           ; preds = %10
  store ptr getelementptr inbounds nuw inrange(-16, 16) (i8, ptr @_ZTV21bv_bound_chk_rewriter, i64 16), ptr %9, align 8, !tbaa !9
  invoke void @_ZN25bv_bound_chk_rewriter_cfgC2ER11ast_managerR18bv_bound_chk_stats(ptr noundef nonnull align 8 dereferenceable(112) %11, ptr noundef nonnull align 8 dereferenceable(976) %1, ptr noundef nonnull align 4 dereferenceable(12) %6)
          to label %12 unwind label %13

12:                                               ; preds = %.noexc
  invoke void @_ZN25bv_bound_chk_rewriter_cfg11updt_paramsERK10params_ref(ptr noundef nonnull align 8 dereferenceable(112) %11, ptr noundef nonnull align 8 dereferenceable(8) %2)
          to label %_ZN19bv_bound_chk_tactic3impC2ER11ast_managerRK10params_refR18bv_bound_chk_stats.exit unwind label %15

13:                                               ; preds = %.noexc
  %14 = landingpad { ptr, i32 }
          cleanup
  br label %18

15:                                               ; preds = %12
  %16 = landingpad { ptr, i32 }
          cleanup
  %17 = getelementptr inbounds nuw i8, ptr %9, i64 552
  tail call void @_ZN13bool_rewriterD2Ev(ptr noundef nonnull align 8 dereferenceable(72) %17) #19
  br label %18

18:                                               ; preds = %15, %13
  %.pn.i.i = phi { ptr, i32 } [ %16, %15 ], [ %14, %13 ]
  tail call void @_ZN12rewriter_tplI25bv_bound_chk_rewriter_cfgED2Ev(ptr noundef nonnull align 8 dereferenceable(648) %9) #19
  br label %.body

_ZN19bv_bound_chk_tactic3impC2ER11ast_managerRK10params_refR18bv_bound_chk_stats.exit: ; preds = %12
  %19 = getelementptr inbounds nuw i8, ptr %0, i64 16
  store ptr %9, ptr %19, align 8, !tbaa !15
  ret void

20:                                               ; preds = %10, %3
  %21 = landingpad { ptr, i32 }
          cleanup
  br label %.body

.body:                                            ; preds = %18, %20
  %eh.lpad-body = phi { ptr, i32 } [ %21, %20 ], [ %.pn.i.i, %18 ]
  tail call void @_ZN10params_refD1Ev(ptr noundef nonnull align 8 dereferenceable(8) %5) #19
  resume { ptr, i32 } %eh.lpad-body
}